target datalayout = "e-m:e-p270:32:32-p271:32:32-p272:64:64-i64:64-i128:128-f80:128-n8:16:32:64-S128"
target triple = "x86_64-pc-linux-gnu"

@.str.15 = private unnamed_addr constant [30 x i8] c"Numerical result out of range\00", align 1

; Function Attrs: nounwind uwtable
define internal i64 @parse_iv2(ptr noundef %0, ptr noundef %1) #0 {
  %3 = alloca i64, align 8
  %4 = alloca ptr, align 8
  %5 = alloca ptr, align 8
  %6 = alloca i64, align 8
  %7 = alloca i64, align 8
  %8 = alloca ptr, align 8
  store ptr %0, ptr %4, align 8
  store ptr %1, ptr %5, align 8
  store i64 0, ptr %6, align 8
  store i64 0, ptr %7, align 8
  %9 = load ptr, ptr %4, align 8
  %10 = load i8, ptr %9, align 1
  %11 = zext i8 %10 to i32
  %12 = icmp eq i32 %11, 45
  br i1 %12, label %13, label %16

13:                                               ; preds = %2
  store i64 1, ptr %7, align 8
  %14 = load ptr, ptr %4, align 8
  %15 = getelementptr inbounds i8, ptr %14, i32 1
  store ptr %15, ptr %4, align 8
  br label %30

16:                                               ; preds = %2
  %17 = load ptr, ptr %4, align 8
  %18 = load i8, ptr %17, align 1
  %19 = zext i8 %18 to i32
  %20 = icmp eq i32 %19, 43
  %21 = xor i1 %20, true
  %22 = xor i1 %21, true
  %23 = zext i1 %22 to i32
  %24 = sext i32 %23 to i64
  %25 = icmp ne i64 %24, 0
  br i1 %25, label %26, label %29

26:                                               ; preds = %16
  %27 = load ptr, ptr %4, align 8
  %28 = getelementptr inbounds i8, ptr %27, i32 1
  store ptr %28, ptr %4, align 8
  br label %29

29:                                               ; preds = %26, %16
  br label %30

30:                                               ; preds = %29, %13
  br label %31

31:                                               ; preds = %41, %30
  %32 = load ptr, ptr %4, align 8
  %33 = load i8, ptr %32, align 1
  %34 = zext i8 %33 to i32
  %35 = icmp eq i32 %34, 48
  %36 = xor i1 %35, true
  %37 = xor i1 %36, true
  %38 = zext i1 %37 to i32
  %39 = sext i32 %38 to i64
  %40 = icmp ne i64 %39, 0
  br i1 %40, label %41, label %44

41:                                               ; preds = %31
  %42 = load ptr, ptr %4, align 8
  %43 = getelementptr inbounds i8, ptr %42, i32 1
  store ptr %43, ptr %4, align 8
  br label %31

44:                                               ; preds = %31
  %45 = load ptr, ptr %4, align 8
  store ptr %45, ptr %8, align 8
  br label %46

46:                                               ; preds = %58, %44
  %47 = load ptr, ptr %4, align 8
  %48 = load i8, ptr %47, align 1
  %49 = zext i8 %48 to i32
  %50 = icmp sge i32 %49, 48
  br i1 %50, label %51, label %56

51:                                               ; preds = %46
  %52 = load ptr, ptr %4, align 8
  %53 = load i8, ptr %52, align 1
  %54 = zext i8 %53 to i32
  %55 = icmp sle i32 %54, 57
  br label %56

56:                                               ; preds = %51, %46
  %57 = phi i1 [ false, %46 ], [ %55, %51 ]
  br i1 %57, label %58, label %68

58:                                               ; preds = %56
  %59 = load i64, ptr %6, align 8
  %60 = mul i64 %59, 10
  %61 = load ptr, ptr %4, align 8
  %62 = load i8, ptr %61, align 1
  %63 = zext i8 %62 to i64
  %64 = sub i64 %63, 48
  %65 = add i64 %60, %64
  store i64 %65, ptr %6, align 8
  %66 = load ptr, ptr %4, align 8
  %67 = getelementptr inbounds i8, ptr %66, i32 1
  store ptr %67, ptr %4, align 8
  br label %46

68:                                               ; preds = %56
  %69 = load ptr, ptr %5, align 8
  %70 = icmp ne ptr %69, null
  br i1 %70, label %71, label %74

71:                                               ; preds = %68
  %72 = load ptr, ptr %4, align 8
  %73 = load ptr, ptr %5, align 8
  store ptr %72, ptr %73, align 8
  br label %74

74:                                               ; preds = %71, %68
  %75 = load ptr, ptr %4, align 8
  %76 = load ptr, ptr %8, align 8
  %77 = ptrtoint ptr %75 to i64
  %78 = ptrtoint ptr %76 to i64
  %79 = sub i64 %77, %78
  %80 = icmp sgt i64 %79, 19
  %81 = xor i1 %80, true
  %82 = xor i1 %81, true
  %83 = zext i1 %82 to i32
  %84 = sext i32 %83 to i64
  %85 = icmp ne i64 %84, 0
  br i1 %85, label %96, label %86

86:                                               ; preds = %74
  %87 = load i64, ptr %6, align 8
  %88 = load i64, ptr %7, align 8
  %89 = add i64 9223372036854775807, %88
  %90 = icmp ugt i64 %87, %89
  %91 = xor i1 %90, true
  %92 = xor i1 %91, true
  %93 = zext i1 %92 to i32
  %94 = sext i32 %93 to i64
  %95 = icmp ne i64 %94, 0
  br i1 %95, label %96, label %101

96:                                               ; preds = %86, %74
  call void (ptr, i32, ptr, ...) @php_error_docref(ptr noundef null, i32 noundef 2, ptr noundef @.str.15)
  %97 = load i64, ptr %7, align 8
  %98 = icmp ne i64 %97, 0
  %99 = xor i1 %98, true
  %100 = select i1 %99, i64 9223372036854775807, i64 -9223372036854775808
  store i64 %100, ptr %3, align 8
  br label %111

101:                                              ; preds = %86
  %102 = load i64, ptr %7, align 8
  %103 = icmp ne i64 %102, 0
  br i1 %103, label %106, label %104

104:                                              ; preds = %101
  %105 = load i64, ptr %6, align 8
  br label %109

106:                                              ; preds = %101
  %107 = load i64, ptr %6, align 8
  %108 = sub i64 0, %107
  br label %109

109:                                              ; preds = %106, %104
  %110 = phi i64 [ %105, %104 ], [ %108, %106 ]
  store i64 %110, ptr %3, align 8
  br label %111

111:                                              ; preds = %109, %96
  %112 = load i64, ptr %3, align 8
  ret i64 %112
}