; Function Attrs: nounwind uwtable
define internal fastcc i64 @parse_iv2(ptr noundef %0, ptr noundef writeonly %1) unnamed_addr #0 {
  %3 = load i8, ptr %0, align 1
  %.not30.not = icmp eq i8 %3, 45
  %4 = icmp eq i8 %3, 43
  %5 = or i1 %.not30.not, %4
  %.025.idx = zext i1 %5 to i64
  %.025 = getelementptr inbounds i8, ptr %0, i64 %.025.idx
  br label %6

6:                                                ; preds = %6, %2
  %.1 = phi ptr [ %.025, %2 ], [ %9, %6 ]
  %7 = load i8, ptr %.1, align 1
  %8 = icmp eq i8 %7, 48
  %9 = getelementptr inbounds i8, ptr %.1, i64 1
  br i1 %8, label %6, label %.preheader

.preheader:                                       ; preds = %6
  %.023 = select i1 %.not30.not, i64 -9223372036854775808, i64 9223372036854775807
  %10 = add i8 %7, -48
  %or.cond33 = icmp ult i8 %10, 10
  br i1 %or.cond33, label %.lr.ph, label %.critedge

.lr.ph:                                           ; preds = %.preheader, %.lr.ph
  %11 = phi i8 [ %17, %.lr.ph ], [ %7, %.preheader ]
  %.02435 = phi i64 [ %15, %.lr.ph ], [ 0, %.preheader ]
  %.234 = phi ptr [ %16, %.lr.ph ], [ %.1, %.preheader ]
  %12 = mul i64 %.02435, 10
  %13 = zext nneg i8 %11 to i64
  %14 = add i64 %12, -48
  %15 = add i64 %14, %13
  %16 = getelementptr inbounds i8, ptr %.234, i64 1
  %17 = load i8, ptr %16, align 1
  %18 = add i8 %17, -48
  %or.cond = icmp ult i8 %18, 10
  br i1 %or.cond, label %.lr.ph, label %.critedge

.critedge:                                        ; preds = %.lr.ph, %.preheader
  %.2.lcssa = phi ptr [ %.1, %.preheader ], [ %16, %.lr.ph ]
  %.024.lcssa = phi i64 [ 0, %.preheader ], [ %15, %.lr.ph ]
  %.not = icmp eq ptr %1, null
  br i1 %.not, label %20, label %19

19:                                               ; preds = %.critedge
  store ptr %.2.lcssa, ptr %1, align 8
  br label %20

20:                                               ; preds = %19, %.critedge
  %21 = ptrtoint ptr %.2.lcssa to i64
  %22 = ptrtoint ptr %.1 to i64
  %23 = sub i64 %21, %22
  %24 = icmp sgt i64 %23, 19
  %25 = icmp ugt i64 %.024.lcssa, %.023
  %or.cond32 = select i1 %24, i1 true, i1 %25
  br i1 %or.cond32, label %26, label %27

26:                                               ; preds = %20
  tail call void (ptr, i32, ptr, ...) @php_error_docref(ptr noundef null, i32 noundef 2, ptr noundef nonnull @.str.15) #13
  br label %30

27:                                               ; preds = %20
  %28 = sub i64 0, %.024.lcssa
  %29 = select i1 %.not30.not, i64 %28, i64 %.024.lcssa
  br label %30

30:                                               ; preds = %27, %26
  %.0 = phi i64 [ %.023, %26 ], [ %29, %27 ]
  ret i64 %.0
}